target datalayout = "e-m:e-p270:32:32-p271:32:32-p272:64:64-i64:64-i128:128-f80:128-n8:16:32:64-S128"
target triple = "x86_64-pc-linux-gnu"

%struct.Vec_Wrd_t_ = type { i32, i32, ptr }

@s_Truths6 = internal global [6 x i64] [i64 -6148914691236517206, i64 -3689348814741910324, i64 -1085102592571150096, i64 -71777214294589696, i64 -281470681808896, i64 -4294967296], align 16

; Function Attrs: nounwind uwtable
define internal ptr @Vec_WrdEntryP(ptr noundef %0, i32 noundef %1) #0 {
  %3 = alloca ptr, align 8
  %4 = alloca i32, align 4
  store ptr %0, ptr %3, align 8
  store i32 %1, ptr %4, align 4
  %5 = load ptr, ptr %3, align 8
  %6 = getelementptr inbounds %struct.Vec_Wrd_t_, ptr %5, i32 0, i32 2
  %7 = load ptr, ptr %6, align 8
  %8 = load i32, ptr %4, align 4
  %9 = sext i32 %8 to i64
  %10 = getelementptr inbounds i64, ptr %7, i64 %9
  ret ptr %10
}

; Function Attrs: nounwind uwtable
define internal ptr @Vec_WrdAlloc(i32 noundef %0) #0 {
  %2 = alloca i32, align 4
  %3 = alloca ptr, align 8
  store i32 %0, ptr %2, align 4
  %4 = call noalias ptr @malloc(i64 noundef 16) #12
  store ptr %4, ptr %3, align 8
  %5 = load i32, ptr %2, align 4
  %6 = icmp sgt i32 %5, 0
  br i1 %6, label %7, label %11

7:                                                ; preds = %1
  %8 = load i32, ptr %2, align 4
  %9 = icmp slt i32 %8, 16
  br i1 %9, label %10, label %11

10:                                               ; preds = %7
  store i32 16, ptr %2, align 4
  br label %11

11:                                               ; preds = %10, %7, %1
  %12 = load ptr, ptr %3, align 8
  %13 = getelementptr inbounds %struct.Vec_Wrd_t_, ptr %12, i32 0, i32 1
  store i32 0, ptr %13, align 4
  %14 = load i32, ptr %2, align 4
  %15 = load ptr, ptr %3, align 8
  %16 = getelementptr inbounds %struct.Vec_Wrd_t_, ptr %15, i32 0, i32 0
  store i32 %14, ptr %16, align 8
  %17 = load ptr, ptr %3, align 8
  %18 = getelementptr inbounds %struct.Vec_Wrd_t_, ptr %17, i32 0, i32 0
  %19 = load i32, ptr %18, align 8
  %20 = icmp ne i32 %19, 0
  br i1 %20, label %21, label %28

21:                                               ; preds = %11
  %22 = load ptr, ptr %3, align 8
  %23 = getelementptr inbounds %struct.Vec_Wrd_t_, ptr %22, i32 0, i32 0
  %24 = load i32, ptr %23, align 8
  %25 = sext i32 %24 to i64
  %26 = mul i64 8, %25
  %27 = call noalias ptr @malloc(i64 noundef %26) #12
  br label %29

28:                                               ; preds = %11
  br label %29

29:                                               ; preds = %28, %21
  %30 = phi ptr [ %27, %21 ], [ null, %28 ]
  %31 = load ptr, ptr %3, align 8
  %32 = getelementptr inbounds %struct.Vec_Wrd_t_, ptr %31, i32 0, i32 2
  store ptr %30, ptr %32, align 8
  %33 = load ptr, ptr %3, align 8
  ret ptr %33
}

; Function Attrs: nounwind uwtable
define internal void @Abc_TtIthVar(ptr noundef %0, i32 noundef %1, i32 noundef %2) #0 {
  %4 = alloca ptr, align 8
  %5 = alloca i32, align 4
  %6 = alloca i32, align 4
  %7 = alloca i32, align 4
  %8 = alloca i32, align 4
  store ptr %0, ptr %4, align 8
  store i32 %1, ptr %5, align 4
  store i32 %2, ptr %6, align 4
  %9 = load i32, ptr %6, align 4
  %10 = call i32 @Abc_TtWordNum(i32 noundef %9)
  store i32 %10, ptr %8, align 4
  %11 = load i32, ptr %5, align 4
  %12 = icmp slt i32 %11, 6
  br i1 %12, label %13, label %31

13:                                               ; preds = %3
  store i32 0, ptr %7, align 4
  br label %14

14:                                               ; preds = %27, %13
  %15 = load i32, ptr %7, align 4
  %16 = load i32, ptr %8, align 4
  %17 = icmp slt i32 %15, %16
  br i1 %17, label %18, label %30

18:                                               ; preds = %14
  %19 = load i32, ptr %5, align 4
  %20 = sext i32 %19 to i64
  %21 = getelementptr inbounds [6 x i64], ptr @s_Truths6, i64 0, i64 %20
  %22 = load i64, ptr %21, align 8
  %23 = load ptr, ptr %4, align 8
  %24 = load i32, ptr %7, align 4
  %25 = sext i32 %24 to i64
  %26 = getelementptr inbounds i64, ptr %23, i64 %25
  store i64 %22, ptr %26, align 8
  br label %27

27:                                               ; preds = %18
  %28 = load i32, ptr %7, align 4
  %29 = add nsw i32 %28, 1
  store i32 %29, ptr %7, align 4
  br label %14, !llvm.loop !7

30:                                               ; preds = %14
  br label %58

31:                                               ; preds = %3
  store i32 0, ptr %7, align 4
  br label %32

32:                                               ; preds = %54, %31
  %33 = load i32, ptr %7, align 4
  %34 = load i32, ptr %8, align 4
  %35 = icmp slt i32 %33, %34
  br i1 %35, label %36, label %57

36:                                               ; preds = %32
  %37 = load i32, ptr %7, align 4
  %38 = load i32, ptr %5, align 4
  %39 = sub nsw i32 %38, 6
  %40 = shl i32 1, %39
  %41 = and i32 %37, %40
  %42 = icmp ne i32 %41, 0
  br i1 %42, label %43, label %48

43:                                               ; preds = %36
  %44 = load ptr, ptr %4, align 8
  %45 = load i32, ptr %7, align 4
  %46 = sext i32 %45 to i64
  %47 = getelementptr inbounds i64, ptr %44, i64 %46
  store i64 -1, ptr %47, align 8
  br label %53

48:                                               ; preds = %36
  %49 = load ptr, ptr %4, align 8
  %50 = load i32, ptr %7, align 4
  %51 = sext i32 %50 to i64
  %52 = getelementptr inbounds i64, ptr %49, i64 %51
  store i64 0, ptr %52, align 8
  br label %53

53:                                               ; preds = %48, %43
  br label %54

54:                                               ; preds = %53
  %55 = load i32, ptr %7, align 4
  %56 = add nsw i32 %55, 1
  store i32 %56, ptr %7, align 4
  br label %32, !llvm.loop !8

57:                                               ; preds = %32
  br label %58

58:                                               ; preds = %57, %30
  ret void
}

; Function Attrs: nounwind uwtable
define internal ptr @Zyx_TestTruth(ptr noundef %0, i32 noundef %1, i32 noundef %2) #0 {
  %4 = alloca ptr, align 8
  %5 = alloca i32, align 4
  %6 = alloca i32, align 4
  store ptr %0, ptr %4, align 8
  store i32 %1, ptr %5, align 4
  store i32 %2, ptr %6, align 4
  %7 = load ptr, ptr %4, align 8
  %8 = load i32, ptr %6, align 4
  %9 = load i32, ptr %5, align 4
  %10 = mul nsw i32 %8, %9
  %11 = call ptr @Vec_WrdEntryP(ptr noundef %7, i32 noundef %10)
  ret ptr %11
}

; Function Attrs: nounwind uwtable
define internal ptr @Vec_WrdStart(i32 noundef %0) #0 {
  %2 = alloca i32, align 4
  %3 = alloca ptr, align 8
  store i32 %0, ptr %2, align 4
  %4 = load i32, ptr %2, align 4
  %5 = call ptr @Vec_WrdAlloc(i32 noundef %4)
  store ptr %5, ptr %3, align 8
  %6 = load i32, ptr %2, align 4
  %7 = load ptr, ptr %3, align 8
  %8 = getelementptr inbounds %struct.Vec_Wrd_t_, ptr %7, i32 0, i32 1
  store i32 %6, ptr %8, align 4
  %9 = load ptr, ptr %3, align 8
  %10 = getelementptr inbounds %struct.Vec_Wrd_t_, ptr %9, i32 0, i32 2
  %11 = load ptr, ptr %10, align 8
  %12 = load i32, ptr %2, align 4
  %13 = sext i32 %12 to i64
  %14 = mul i64 8, %13
  call void @llvm.memset.p0.i64(ptr align 8 %11, i8 0, i64 %14, i1 false)
  %15 = load ptr, ptr %3, align 8
  ret ptr %15
}

; Function Attrs: nounwind uwtable
define internal i32 @Abc_TtWordNum(i32 noundef %0) #0 {
  %2 = alloca i32, align 4
  store i32 %0, ptr %2, align 4
  %3 = load i32, ptr %2, align 4
  %4 = icmp sle i32 %3, 6
  br i1 %4, label %5, label %6

5:                                                ; preds = %1
  br label %10

6:                                                ; preds = %1
  %7 = load i32, ptr %2, align 4
  %8 = sub nsw i32 %7, 6
  %9 = shl i32 1, %8
  br label %10

10:                                               ; preds = %6, %5
  %11 = phi i32 [ 1, %5 ], [ %9, %6 ]
  ret i32 %11
}

; Function Attrs: nounwind uwtable
define ptr @Zyx_TestCreateTruthTables(i32 noundef %0, i32 noundef %1) #0 {
  %3 = alloca i32, align 4
  %4 = alloca i32, align 4
  %5 = alloca i32, align 4
  %6 = alloca i32, align 4
  %7 = alloca ptr, align 8
  store i32 %0, ptr %3, align 4
  store i32 %1, ptr %4, align 4
  %8 = load i32, ptr %3, align 4
  %9 = call i32 @Abc_TtWordNum(i32 noundef %8)
  store i32 %9, ptr %6, align 4
  %10 = load i32, ptr %6, align 4
  %11 = load i32, ptr %3, align 4
  %12 = load i32, ptr %4, align 4
  %13 = add nsw i32 %11, %12
  %14 = add nsw i32 %13, 1
  %15 = mul nsw i32 %10, %14
  %16 = call ptr @Vec_WrdStart(i32 noundef %15)
  store ptr %16, ptr %7, align 8
  store i32 0, ptr %5, align 4
  br label %17

17:                                               ; preds = %28, %2
  %18 = load i32, ptr %5, align 4
  %19 = load i32, ptr %3, align 4
  %20 = icmp slt i32 %18, %19
  br i1 %20, label %21, label %31

21:                                               ; preds = %17
  %22 = load ptr, ptr %7, align 8
  %23 = load i32, ptr %5, align 4
  %24 = load i32, ptr %6, align 4
  %25 = call ptr @Zyx_TestTruth(ptr noundef %22, i32 noundef %23, i32 noundef %24)
  %26 = load i32, ptr %5, align 4
  %27 = load i32, ptr %3, align 4
  call void @Abc_TtIthVar(ptr noundef %25, i32 noundef %26, i32 noundef %27)
  br label %28

28:                                               ; preds = %21
  %29 = load i32, ptr %5, align 4
  %30 = add nsw i32 %29, 1
  store i32 %30, ptr %5, align 4
  br label %17, !llvm.loop !125

31:                                               ; preds = %17
  %32 = load ptr, ptr %7, align 8
  ret ptr %32
}