; Function Attrs: nofree nounwind memory(write, inaccessiblemem: readwrite) uwtable
define noalias noundef ptr @Zyx_TestCreateTruthTables(i32 noundef %0, i32 noundef %1) local_unnamed_addr #11 {
  %3 = icmp slt i32 %0, 7
  %4 = add nsw i32 %0, -6
  %5 = shl nuw i32 1, %4
  %.fr = freeze i32 %5
  %6 = select i1 %3, i32 1, i32 %.fr
  %7 = add i32 %0, 1
  %8 = add i32 %7, %1
  %9 = select i1 %3, i32 0, i32 %4
  %10 = shl i32 %8, %9
  %11 = tail call noalias dereferenceable_or_null(16) ptr @malloc(i64 noundef 16) #21
  %12 = add i32 %10, -1
  %or.cond.i.i = icmp ult i32 %12, 15
  %spec.store.select.i.i = select i1 %or.cond.i.i, i32 16, i32 %10
  store i32 %spec.store.select.i.i, ptr %11, align 8
  %.not.i.i = icmp eq i32 %spec.store.select.i.i, 0
  br i1 %.not.i.i, label %Vec_WrdStart.exit, label %13

13:                                               ; preds = %2
  %14 = sext i32 %spec.store.select.i.i to i64
  %15 = shl nsw i64 %14, 3
  %16 = tail call noalias ptr @malloc(i64 noundef %15) #21
  br label %Vec_WrdStart.exit

Vec_WrdStart.exit:                                ; preds = %2, %13
  %.val = phi ptr [ %16, %13 ], [ null, %2 ]
  %17 = getelementptr inbounds nuw i8, ptr %11, i64 4
  %18 = getelementptr inbounds nuw i8, ptr %11, i64 8
  store ptr %.val, ptr %18, align 8
  store i32 %10, ptr %17, align 4
  %19 = sext i32 %10 to i64
  %20 = shl nsw i64 %19, 3
  tail call void @llvm.memset.p0.i64(ptr align 8 %.val, i8 0, i64 %20, i1 false)
  %21 = icmp sgt i32 %0, 0
  br i1 %21, label %.lr.ph, label %._crit_edge

.lr.ph:                                           ; preds = %Vec_WrdStart.exit
  %22 = icmp sgt i32 %6, 0
  %wide.trip.count.i = zext nneg i32 %6 to i64
  br i1 %22, label %.lr.ph.split.us.preheader, label %._crit_edge

.lr.ph.split.us.preheader:                        ; preds = %.lr.ph
  %wide.trip.count = zext nneg i32 %0 to i64
  br label %.lr.ph.split.us

.lr.ph.split.us:                                  ; preds = %.lr.ph.split.us.preheader, %Abc_TtIthVar.exit.us
  %indvars.iv = phi i64 [ 0, %.lr.ph.split.us.preheader ], [ %indvars.iv.next, %Abc_TtIthVar.exit.us ]
  %23 = trunc nuw nsw i64 %indvars.iv to i32
  %24 = shl i32 %23, %9
  %25 = sext i32 %24 to i64
  %26 = getelementptr inbounds i64, ptr %.val, i64 %25
  %27 = icmp samesign ult i64 %indvars.iv, 6
  br i1 %27, label %.preheader.i.us, label %.preheader18.i.us

.preheader18.i.us:                                ; preds = %.lr.ph.split.us
  %28 = trunc i64 %indvars.iv to i32
  %29 = add i32 %28, -6
  %30 = shl nuw i32 1, %29
  br label %31

31:                                               ; preds = %31, %.preheader18.i.us
  %indvars.iv.i.us = phi i64 [ 0, %.preheader18.i.us ], [ %indvars.iv.next.i.us, %31 ]
  %32 = trunc nuw nsw i64 %indvars.iv.i.us to i32
  %33 = and i32 %30, %32
  %.not.i.us = icmp ne i32 %33, 0
  %spec.select.i.us = sext i1 %.not.i.us to i64
  %34 = getelementptr inbounds nuw i64, ptr %26, i64 %indvars.iv.i.us
  store i64 %spec.select.i.us, ptr %34, align 8
  %indvars.iv.next.i.us = add nuw nsw i64 %indvars.iv.i.us, 1
  %exitcond.not.i.us = icmp eq i64 %indvars.iv.next.i.us, %wide.trip.count.i
  br i1 %exitcond.not.i.us, label %Abc_TtIthVar.exit.us, label %31, !llvm.loop !6

.preheader.i.us:                                  ; preds = %.lr.ph.split.us
  %35 = getelementptr inbounds nuw [6 x i64], ptr @s_Truths6, i64 0, i64 %indvars.iv
  %36 = load i64, ptr %35, align 8
  br label %37

37:                                               ; preds = %37, %.preheader.i.us
  %indvars.iv25.i.us = phi i64 [ 0, %.preheader.i.us ], [ %indvars.iv.next26.i.us, %37 ]
  %38 = getelementptr inbounds nuw i64, ptr %26, i64 %indvars.iv25.i.us
  store i64 %36, ptr %38, align 8
  %indvars.iv.next26.i.us = add nuw nsw i64 %indvars.iv25.i.us, 1
  %exitcond29.not.i.us = icmp eq i64 %indvars.iv.next26.i.us, %wide.trip.count.i
  br i1 %exitcond29.not.i.us, label %Abc_TtIthVar.exit.us, label %37, !llvm.loop !4

Abc_TtIthVar.exit.us:                             ; preds = %31, %37
  %indvars.iv.next = add nuw nsw i64 %indvars.iv, 1
  %exitcond.not = icmp eq i64 %indvars.iv.next, %wide.trip.count
  br i1 %exitcond.not, label %._crit_edge, label %.lr.ph.split.us, !llvm.loop !132

._crit_edge:                                      ; preds = %Abc_TtIthVar.exit.us, %.lr.ph, %Vec_WrdStart.exit
  ret ptr %11
}